target datalayout = "e-m:e-p270:32:32-p271:32:32-p272:64:64-i64:64-i128:128-f80:128-n8:16:32:64-S128"
target triple = "x86_64-unknown-linux-gnu"

%struct.Node = type { i32, ptr, ptr, ptr, ptr, ptr, ptr, ptr, ptr, ptr, ptr, ptr, ptr, ptr, ptr, ptr, ptr, i8, ptr, ptr, ptr, ptr, ptr, ptr, i64, i64, ptr, ptr, ptr, ptr, ptr, ptr, ptr, i64, x86_fp80 }
%struct.Type = type { i32, i32, i32, i8, i8, ptr, ptr, ptr, ptr, i32, ptr, ptr, ptr, i8, i8, ptr, ptr, i8, ptr }

@.str.129 = private unnamed_addr constant [17 x i8] c"invalid operands\00", align 1
@ty_long = external global ptr, align 8

; Function Attrs: nounwind uwtable
define internal ptr @new_node(i32 noundef %kind, ptr noundef %tok) #0 {
entry:
  %kind.addr = alloca i32, align 4
  %tok.addr = alloca ptr, align 8
  %node = alloca ptr, align 8
  store i32 %kind, ptr %kind.addr, align 4
  store ptr %tok, ptr %tok.addr, align 8
  %call = call noalias ptr @calloc(i64 noundef 1, i64 noundef 288) #8
  store ptr %call, ptr %node, align 8
  %0 = load i32, ptr %kind.addr, align 4
  %1 = load ptr, ptr %node, align 8
  %kind1 = getelementptr inbounds %struct.Node, ptr %1, i32 0, i32 0
  store i32 %0, ptr %kind1, align 16
  %2 = load ptr, ptr %tok.addr, align 8
  %3 = load ptr, ptr %node, align 8
  %tok2 = getelementptr inbounds %struct.Node, ptr %3, i32 0, i32 3
  store ptr %2, ptr %tok2, align 8
  %4 = load ptr, ptr %node, align 8
  ret ptr %4
}

; Function Attrs: nounwind uwtable
define internal ptr @new_long(i64 noundef %val, ptr noundef %tok) #0 {
entry:
  %val.addr = alloca i64, align 8
  %tok.addr = alloca ptr, align 8
  %node = alloca ptr, align 8
  store i64 %val, ptr %val.addr, align 8
  store ptr %tok, ptr %tok.addr, align 8
  %0 = load ptr, ptr %tok.addr, align 8
  %call = call ptr @new_node(i32 noundef 42, ptr noundef %0)
  store ptr %call, ptr %node, align 8
  %1 = load i64, ptr %val.addr, align 8
  %2 = load ptr, ptr %node, align 8
  %val1 = getelementptr inbounds %struct.Node, ptr %2, i32 0, i32 33
  store i64 %1, ptr %val1, align 8
  %3 = load ptr, ptr @ty_long, align 8
  %4 = load ptr, ptr %node, align 8
  %ty = getelementptr inbounds %struct.Node, ptr %4, i32 0, i32 2
  store ptr %3, ptr %ty, align 16
  %5 = load ptr, ptr %node, align 8
  ret ptr %5
}

; Function Attrs: nounwind uwtable
define internal ptr @new_var_node(ptr noundef %var, ptr noundef %tok) #0 {
entry:
  %var.addr = alloca ptr, align 8
  %tok.addr = alloca ptr, align 8
  %node = alloca ptr, align 8
  store ptr %var, ptr %var.addr, align 8
  store ptr %tok, ptr %tok.addr, align 8
  %0 = load ptr, ptr %tok.addr, align 8
  %call = call ptr @new_node(i32 noundef 40, ptr noundef %0)
  store ptr %call, ptr %node, align 8
  %1 = load ptr, ptr %var.addr, align 8
  %2 = load ptr, ptr %node, align 8
  %var1 = getelementptr inbounds %struct.Node, ptr %2, i32 0, i32 32
  store ptr %1, ptr %var1, align 16
  %3 = load ptr, ptr %node, align 8
  ret ptr %3
}

; Function Attrs: nounwind uwtable
define internal ptr @new_binary(i32 noundef %kind, ptr noundef %lhs, ptr noundef %rhs, ptr noundef %tok) #0 {
entry:
  %kind.addr = alloca i32, align 4
  %lhs.addr = alloca ptr, align 8
  %rhs.addr = alloca ptr, align 8
  %tok.addr = alloca ptr, align 8
  %node = alloca ptr, align 8
  store i32 %kind, ptr %kind.addr, align 4
  store ptr %lhs, ptr %lhs.addr, align 8
  store ptr %rhs, ptr %rhs.addr, align 8
  store ptr %tok, ptr %tok.addr, align 8
  %0 = load i32, ptr %kind.addr, align 4
  %1 = load ptr, ptr %tok.addr, align 8
  %call = call ptr @new_node(i32 noundef %0, ptr noundef %1)
  store ptr %call, ptr %node, align 8
  %2 = load ptr, ptr %lhs.addr, align 8
  %3 = load ptr, ptr %node, align 8
  %lhs1 = getelementptr inbounds %struct.Node, ptr %3, i32 0, i32 4
  store ptr %2, ptr %lhs1, align 16
  %4 = load ptr, ptr %rhs.addr, align 8
  %5 = load ptr, ptr %node, align 8
  %rhs2 = getelementptr inbounds %struct.Node, ptr %5, i32 0, i32 5
  store ptr %4, ptr %rhs2, align 8
  %6 = load ptr, ptr %node, align 8
  ret ptr %6
}

; Function Attrs: nounwind uwtable
define internal ptr @new_add(ptr noundef %lhs, ptr noundef %rhs, ptr noundef %tok) #0 {
entry:
  %retval = alloca ptr, align 8
  %lhs.addr = alloca ptr, align 8
  %rhs.addr = alloca ptr, align 8
  %tok.addr = alloca ptr, align 8
  %tmp = alloca ptr, align 8
  store ptr %lhs, ptr %lhs.addr, align 8
  store ptr %rhs, ptr %rhs.addr, align 8
  store ptr %tok, ptr %tok.addr, align 8
  %0 = load ptr, ptr %lhs.addr, align 8
  call void @add_type(ptr noundef %0)
  %1 = load ptr, ptr %rhs.addr, align 8
  call void @add_type(ptr noundef %1)
  %2 = load ptr, ptr %lhs.addr, align 8
  %ty = getelementptr inbounds %struct.Node, ptr %2, i32 0, i32 2
  %3 = load ptr, ptr %ty, align 16
  %call = call zeroext i1 @is_numeric(ptr noundef %3)
  br i1 %call, label %land.lhs.true, label %if.end

land.lhs.true:                                    ; preds = %entry
  %4 = load ptr, ptr %rhs.addr, align 8
  %ty1 = getelementptr inbounds %struct.Node, ptr %4, i32 0, i32 2
  %5 = load ptr, ptr %ty1, align 16
  %call2 = call zeroext i1 @is_numeric(ptr noundef %5)
  br i1 %call2, label %if.then, label %if.end

if.then:                                          ; preds = %land.lhs.true
  %6 = load ptr, ptr %lhs.addr, align 8
  %7 = load ptr, ptr %rhs.addr, align 8
  %8 = load ptr, ptr %tok.addr, align 8
  %call3 = call ptr @new_binary(i32 noundef 1, ptr noundef %6, ptr noundef %7, ptr noundef %8)
  store ptr %call3, ptr %retval, align 8
  br label %return

if.end:                                           ; preds = %land.lhs.true, %entry
  %9 = load ptr, ptr %lhs.addr, align 8
  %ty4 = getelementptr inbounds %struct.Node, ptr %9, i32 0, i32 2
  %10 = load ptr, ptr %ty4, align 16
  %base = getelementptr inbounds %struct.Type, ptr %10, i32 0, i32 6
  %11 = load ptr, ptr %base, align 8
  %tobool = icmp ne ptr %11, null
  br i1 %tobool, label %land.lhs.true5, label %if.end10

land.lhs.true5:                                   ; preds = %if.end
  %12 = load ptr, ptr %rhs.addr, align 8
  %ty6 = getelementptr inbounds %struct.Node, ptr %12, i32 0, i32 2
  %13 = load ptr, ptr %ty6, align 16
  %base7 = getelementptr inbounds %struct.Type, ptr %13, i32 0, i32 6
  %14 = load ptr, ptr %base7, align 8
  %tobool8 = icmp ne ptr %14, null
  br i1 %tobool8, label %if.then9, label %if.end10

if.then9:                                         ; preds = %land.lhs.true5
  %15 = load ptr, ptr %tok.addr, align 8
  call void (ptr, ptr, ...) @error_tok(ptr noundef %15, ptr noundef @.str.129) #9
  unreachable

if.end10:                                         ; preds = %land.lhs.true5, %if.end
  %16 = load ptr, ptr %lhs.addr, align 8
  %ty11 = getelementptr inbounds %struct.Node, ptr %16, i32 0, i32 2
  %17 = load ptr, ptr %ty11, align 16
  %base12 = getelementptr inbounds %struct.Type, ptr %17, i32 0, i32 6
  %18 = load ptr, ptr %base12, align 8
  %tobool13 = icmp ne ptr %18, null
  br i1 %tobool13, label %if.end19, label %land.lhs.true14

land.lhs.true14:                                  ; preds = %if.end10
  %19 = load ptr, ptr %rhs.addr, align 8
  %ty15 = getelementptr inbounds %struct.Node, ptr %19, i32 0, i32 2
  %20 = load ptr, ptr %ty15, align 16
  %base16 = getelementptr inbounds %struct.Type, ptr %20, i32 0, i32 6
  %21 = load ptr, ptr %base16, align 8
  %tobool17 = icmp ne ptr %21, null
  br i1 %tobool17, label %if.then18, label %if.end19

if.then18:                                        ; preds = %land.lhs.true14
  %22 = load ptr, ptr %lhs.addr, align 8
  store ptr %22, ptr %tmp, align 8
  %23 = load ptr, ptr %rhs.addr, align 8
  store ptr %23, ptr %lhs.addr, align 8
  %24 = load ptr, ptr %tmp, align 8
  store ptr %24, ptr %rhs.addr, align 8
  br label %if.end19

if.end19:                                         ; preds = %if.then18, %land.lhs.true14, %if.end10
  %25 = load ptr, ptr %lhs.addr, align 8
  %ty20 = getelementptr inbounds %struct.Node, ptr %25, i32 0, i32 2
  %26 = load ptr, ptr %ty20, align 16
  %base21 = getelementptr inbounds %struct.Type, ptr %26, i32 0, i32 6
  %27 = load ptr, ptr %base21, align 8
  %kind = getelementptr inbounds %struct.Type, ptr %27, i32 0, i32 0
  %28 = load i32, ptr %kind, align 8
  %cmp = icmp eq i32 %28, 13
  br i1 %cmp, label %if.then22, label %if.end28

if.then22:                                        ; preds = %if.end19
  %29 = load ptr, ptr %rhs.addr, align 8
  %30 = load ptr, ptr %lhs.addr, align 8
  %ty23 = getelementptr inbounds %struct.Node, ptr %30, i32 0, i32 2
  %31 = load ptr, ptr %ty23, align 16
  %base24 = getelementptr inbounds %struct.Type, ptr %31, i32 0, i32 6
  %32 = load ptr, ptr %base24, align 8
  %vla_size = getelementptr inbounds %struct.Type, ptr %32, i32 0, i32 11
  %33 = load ptr, ptr %vla_size, align 8
  %34 = load ptr, ptr %tok.addr, align 8
  %call25 = call ptr @new_var_node(ptr noundef %33, ptr noundef %34)
  %35 = load ptr, ptr %tok.addr, align 8
  %call26 = call ptr @new_binary(i32 noundef 3, ptr noundef %29, ptr noundef %call25, ptr noundef %35)
  store ptr %call26, ptr %rhs.addr, align 8
  %36 = load ptr, ptr %lhs.addr, align 8
  %37 = load ptr, ptr %rhs.addr, align 8
  %38 = load ptr, ptr %tok.addr, align 8
  %call27 = call ptr @new_binary(i32 noundef 1, ptr noundef %36, ptr noundef %37, ptr noundef %38)
  store ptr %call27, ptr %retval, align 8
  br label %return

if.end28:                                         ; preds = %if.end19
  %39 = load ptr, ptr %rhs.addr, align 8
  %40 = load ptr, ptr %lhs.addr, align 8
  %ty29 = getelementptr inbounds %struct.Node, ptr %40, i32 0, i32 2
  %41 = load ptr, ptr %ty29, align 16
  %base30 = getelementptr inbounds %struct.Type, ptr %41, i32 0, i32 6
  %42 = load ptr, ptr %base30, align 8
  %size = getelementptr inbounds %struct.Type, ptr %42, i32 0, i32 1
  %43 = load i32, ptr %size, align 4
  %conv = sext i32 %43 to i64
  %44 = load ptr, ptr %tok.addr, align 8
  %call31 = call ptr @new_long(i64 noundef %conv, ptr noundef %44)
  %45 = load ptr, ptr %tok.addr, align 8
  %call32 = call ptr @new_binary(i32 noundef 3, ptr noundef %39, ptr noundef %call31, ptr noundef %45)
  store ptr %call32, ptr %rhs.addr, align 8
  %46 = load ptr, ptr %lhs.addr, align 8
  %47 = load ptr, ptr %rhs.addr, align 8
  %48 = load ptr, ptr %tok.addr, align 8
  %call33 = call ptr @new_binary(i32 noundef 1, ptr noundef %46, ptr noundef %47, ptr noundef %48)
  store ptr %call33, ptr %retval, align 8
  br label %return

return:                                           ; preds = %if.end28, %if.then22, %if.then
  %49 = load ptr, ptr %retval, align 8
  ret ptr %49
}