; Function Attrs: nounwind uwtable
define internal fastcc noalias noundef ptr @new_add(ptr noundef %lhs, ptr noundef %rhs, ptr noundef %tok) unnamed_addr #0 {
entry:
  tail call void @add_type(ptr noundef %lhs) #13
  tail call void @add_type(ptr noundef %rhs) #13
  %ty = getelementptr inbounds %struct.Node, ptr %lhs, i64 0, i32 2
  %0 = load ptr, ptr %ty, align 16
  %call = tail call zeroext i1 @is_numeric(ptr noundef %0) #13
  br i1 %call, label %land.lhs.true, label %if.end

land.lhs.true:                                    ; preds = %entry
  %ty1 = getelementptr inbounds %struct.Node, ptr %rhs, i64 0, i32 2
  %1 = load ptr, ptr %ty1, align 16
  %call2 = tail call zeroext i1 @is_numeric(ptr noundef %1) #13
  br i1 %call2, label %return, label %if.end

if.end:                                           ; preds = %land.lhs.true, %entry
  %2 = load ptr, ptr %ty, align 16
  %base = getelementptr inbounds %struct.Type, ptr %2, i64 0, i32 6
  %3 = load ptr, ptr %base, align 8
  %tobool.not = icmp eq ptr %3, null
  %ty15 = getelementptr inbounds %struct.Node, ptr %rhs, i64 0, i32 2
  %4 = load ptr, ptr %ty15, align 16
  %base16 = getelementptr inbounds %struct.Type, ptr %4, i64 0, i32 6
  %5 = load ptr, ptr %base16, align 8
  %tobool17.not = icmp eq ptr %5, null
  br i1 %tobool.not, label %land.lhs.true14, label %land.lhs.true5

land.lhs.true5:                                   ; preds = %if.end
  br i1 %tobool17.not, label %if.end19, label %if.then9

if.then9:                                         ; preds = %land.lhs.true5
  tail call void (ptr, ptr, ...) @error_tok(ptr noundef %tok, ptr noundef nonnull @.str.129) #16
  unreachable

land.lhs.true14:                                  ; preds = %if.end
  %spec.select = select i1 %tobool17.not, ptr %rhs, ptr %lhs
  %spec.select27 = select i1 %tobool17.not, ptr %lhs, ptr %rhs
  %ty20.phi.trans.insert = getelementptr inbounds %struct.Node, ptr %spec.select27, i64 0, i32 2
  %.pre = load ptr, ptr %ty20.phi.trans.insert, align 16
  %base21.phi.trans.insert = getelementptr inbounds %struct.Type, ptr %.pre, i64 0, i32 6
  %.pre48 = load ptr, ptr %base21.phi.trans.insert, align 8
  br label %if.end19

if.end19:                                         ; preds = %land.lhs.true5, %land.lhs.true14
  %6 = phi ptr [ %.pre48, %land.lhs.true14 ], [ %3, %land.lhs.true5 ]
  %rhs.addr.0 = phi ptr [ %spec.select, %land.lhs.true14 ], [ %rhs, %land.lhs.true5 ]
  %lhs.addr.0 = phi ptr [ %spec.select27, %land.lhs.true14 ], [ %lhs, %land.lhs.true5 ]
  %7 = load i32, ptr %6, align 8
  %cmp = icmp eq i32 %7, 13
  br i1 %cmp, label %if.then22, label %if.end28

if.then22:                                        ; preds = %if.end19
  %vla_size = getelementptr inbounds %struct.Type, ptr %6, i64 0, i32 11
  %8 = load ptr, ptr %vla_size, align 8
  %call.i.i28 = tail call noalias noundef dereferenceable_or_null(288) ptr @calloc(i64 noundef 1, i64 noundef 288) #14
  store i32 40, ptr %call.i.i28, align 16
  %tok2.i.i29 = getelementptr inbounds %struct.Node, ptr %call.i.i28, i64 0, i32 3
  store ptr %tok, ptr %tok2.i.i29, align 8
  %var1.i = getelementptr inbounds %struct.Node, ptr %call.i.i28, i64 0, i32 32
  store ptr %8, ptr %var1.i, align 16
  %call.i.i30 = tail call noalias noundef dereferenceable_or_null(288) ptr @calloc(i64 noundef 1, i64 noundef 288) #14
  br label %return.sink.split

if.end28:                                         ; preds = %if.end19
  %size = getelementptr inbounds %struct.Type, ptr %6, i64 0, i32 1
  %9 = load i32, ptr %size, align 4
  %conv = sext i32 %9 to i64
  %call.i.i38 = tail call noalias noundef dereferenceable_or_null(288) ptr @calloc(i64 noundef 1, i64 noundef 288) #14
  store i32 42, ptr %call.i.i38, align 16
  %tok2.i.i39 = getelementptr inbounds %struct.Node, ptr %call.i.i38, i64 0, i32 3
  store ptr %tok, ptr %tok2.i.i39, align 8
  %val1.i = getelementptr inbounds %struct.Node, ptr %call.i.i38, i64 0, i32 33
  store i64 %conv, ptr %val1.i, align 8
  %10 = load ptr, ptr @ty_long, align 8
  %ty.i = getelementptr inbounds %struct.Node, ptr %call.i.i38, i64 0, i32 2
  store ptr %10, ptr %ty.i, align 16
  %call.i.i40 = tail call noalias noundef dereferenceable_or_null(288) ptr @calloc(i64 noundef 1, i64 noundef 288) #14
  br label %return.sink.split

return.sink.split:                                ; preds = %if.then22, %if.end28
  %call.i.i40.sink55 = phi ptr [ %call.i.i40, %if.end28 ], [ %call.i.i30, %if.then22 ]
  %call.i.i38.sink = phi ptr [ %call.i.i38, %if.end28 ], [ %call.i.i28, %if.then22 ]
  store i32 3, ptr %call.i.i40.sink55, align 16
  %tok2.i.i41 = getelementptr inbounds %struct.Node, ptr %call.i.i40.sink55, i64 0, i32 3
  store ptr %tok, ptr %tok2.i.i41, align 8
  %lhs1.i42 = getelementptr inbounds %struct.Node, ptr %call.i.i40.sink55, i64 0, i32 4
  store ptr %rhs.addr.0, ptr %lhs1.i42, align 16
  %rhs2.i43 = getelementptr inbounds %struct.Node, ptr %call.i.i40.sink55, i64 0, i32 5
  store ptr %call.i.i38.sink, ptr %rhs2.i43, align 8
  br label %return

return:                                           ; preds = %return.sink.split, %land.lhs.true
  %lhs.addr.0.sink = phi ptr [ %lhs, %land.lhs.true ], [ %lhs.addr.0, %return.sink.split ]
  %call.i.i40.sink = phi ptr [ %rhs, %land.lhs.true ], [ %call.i.i40.sink55, %return.sink.split ]
  %call.i.i44 = tail call noalias noundef dereferenceable_or_null(288) ptr @calloc(i64 noundef 1, i64 noundef 288) #14
  store i32 1, ptr %call.i.i44, align 16
  %tok2.i.i45 = getelementptr inbounds %struct.Node, ptr %call.i.i44, i64 0, i32 3
  store ptr %tok, ptr %tok2.i.i45, align 8
  %lhs1.i46 = getelementptr inbounds %struct.Node, ptr %call.i.i44, i64 0, i32 4
  store ptr %lhs.addr.0.sink, ptr %lhs1.i46, align 16
  %rhs2.i47 = getelementptr inbounds %struct.Node, ptr %call.i.i44, i64 0, i32 5
  store ptr %call.i.i40.sink, ptr %rhs2.i47, align 8
  ret ptr %call.i.i44
}